; Function Attrs: alwaysinline norecurse nounwind uwtable
define internal void @_ZNK4ncnn15RMSNorm_x86_fma15forward_inplaceERNS_3MatERKNS_6OptionE.omp_outlined.2(ptr noalias noundef readonly captures(none) %0, ptr noalias readnone captures(none) %1, ptr noundef nonnull readonly align 4 captures(none) dereferenceable(4) %2, ptr noundef nonnull readonly align 8 captures(none) dereferenceable(72) %3, ptr noundef readonly captures(none) %4, ptr noundef nonnull readonly align 4 captures(none) dereferenceable(4) %5, ptr noundef nonnull readonly align 4 captures(none) dereferenceable(4) %6, ptr noundef nonnull readonly align 4 captures(none) dereferenceable(4) %7) #6 personality ptr @__gxx_personality_v0 {
  %9 = alloca i32, align 4
  %10 = alloca i32, align 4
  %11 = alloca i32, align 4
  %12 = alloca i32, align 4
  %13 = load i32, ptr %2, align 4, !tbaa !20
  %14 = icmp sgt i32 %13, 0
  br i1 %14, label %15, label %40

15:                                               ; preds = %8
  %16 = add nsw i32 %13, -1
  call void @llvm.lifetime.start.p0(i64 4, ptr nonnull %9) #7
  store i32 0, ptr %9, align 4, !tbaa !20
  call void @llvm.lifetime.start.p0(i64 4, ptr nonnull %10) #7
  store i32 %16, ptr %10, align 4, !tbaa !20
  call void @llvm.lifetime.start.p0(i64 4, ptr nonnull %11) #7
  store i32 1, ptr %11, align 4, !tbaa !20
  call void @llvm.lifetime.start.p0(i64 4, ptr nonnull %12) #7
  store i32 0, ptr %12, align 4, !tbaa !20
  %17 = load i32, ptr %0, align 4, !tbaa !20
  call void @__kmpc_for_static_init_4(ptr nonnull @1, i32 %17, i32 34, ptr nonnull %12, ptr nonnull %9, ptr nonnull %10, ptr nonnull %11, i32 1, i32 1)
  %18 = load i32, ptr %10, align 4, !tbaa !20
  %19 = call i32 @llvm.smin.i32(i32 %18, i32 %16)
  store i32 %19, ptr %10, align 4, !tbaa !20
  %20 = load i32, ptr %9, align 4, !tbaa !20
  %.not25 = icmp sgt i32 %20, %19
  br i1 %.not25, label %._crit_edge, label %.noexc.lr.ph

.noexc.lr.ph:                                     ; preds = %15
  %21 = getelementptr inbounds nuw i8, ptr %3, i64 64
  %22 = getelementptr inbounds nuw i8, ptr %3, i64 16
  %23 = getelementptr inbounds nuw i8, ptr %4, i64 224
  %24 = getelementptr inbounds nuw i8, ptr %4, i64 212
  %25 = sext i32 %20 to i64
  br label %.noexc

.noexc:                                           ; preds = %.noexc.lr.ph, %.noexc
  %indvars.iv = phi i64 [ %25, %.noexc.lr.ph ], [ %indvars.iv.next, %.noexc ]
  %26 = load ptr, ptr %3, align 8, !tbaa !16, !noalias !69
  %27 = load i64, ptr %21, align 8, !tbaa !17, !noalias !69
  %28 = mul i64 %27, %indvars.iv
  %29 = load i64, ptr %22, align 8, !tbaa !60, !noalias !69
  %30 = mul i64 %28, %29
  %31 = getelementptr inbounds nuw i8, ptr %26, i64 %30
  %32 = load ptr, ptr %23, align 8, !tbaa !16
  %33 = load float, ptr %24, align 4, !tbaa !24
  %34 = load i32, ptr %5, align 4, !tbaa !20
  %35 = load i32, ptr %6, align 4, !tbaa !20
  %36 = mul nsw i32 %35, %34
  %37 = load i32, ptr %7, align 4, !tbaa !20
  call fastcc void @_ZN4ncnnL7rmsnormEPfPKffii(ptr noundef %31, ptr noundef %32, float noundef nofpclass(nan inf) %33, i32 noundef %36, i32 noundef %37)
  %indvars.iv.next = add nsw i64 %indvars.iv, 1
  %38 = load i32, ptr %10, align 4, !tbaa !20
  %39 = sext i32 %38 to i64
  %.not.not = icmp slt i64 %indvars.iv, %39
  br i1 %.not.not, label %.noexc, label %._crit_edge

._crit_edge:                                      ; preds = %.noexc, %15
  call void @__kmpc_for_static_fini(ptr nonnull @1, i32 %17)
  call void @llvm.lifetime.end.p0(i64 4, ptr nonnull %12) #7
  call void @llvm.lifetime.end.p0(i64 4, ptr nonnull %11) #7
  call void @llvm.lifetime.end.p0(i64 4, ptr nonnull %10) #7
  call void @llvm.lifetime.end.p0(i64 4, ptr nonnull %9) #7
  br label %40

40:                                               ; preds = %._crit_edge, %8
  ret void
}